; Function Attrs: mustprogress uwtable
define noundef i64 @_ZNK8proxygen26PassThroughHTTPCodecFilter23mapPriorityToDependencyEh(ptr nocapture noundef nonnull readonly align 8 dereferenceable(72) %this, i8 noundef zeroext %priority) unnamed_addr #3 align 2 {
entry:
  %call_ = getelementptr inbounds i8, ptr %this, i64 24
  %0 = load ptr, ptr %call_, align 8
  %vtable = load ptr, ptr %0, align 8
  %vfn = getelementptr inbounds i8, ptr %vtable, i64 416
  %1 = load ptr, ptr %vfn, align 8
  %call = tail call noundef i64 %1(ptr noundef nonnull align 8 dereferenceable(8) %0, i8 noundef zeroext %priority)
  ret i64 %call
}